; ModuleID = '29/938.c'
source_filename = "29/938.c"
target datalayout = "e-m:e-p270:32:32-p271:32:32-p272:64:64-i64:64-f80:128-n8:16:32:64-S128"
target triple = "x86_64-pc-linux-gnu"

@.str = private unnamed_addr constant [3 x i8] c"%d\00", align 1
@.str.1 = private unnamed_addr constant [6 x i8] c"%.3f\0A\00", align 1

; Function Attrs: noinline nounwind uwtable
define dso_local i32 @main() #0 {
  %1 = alloca i32, align 4
  %2 = alloca [41 x i32], align 16
  %3 = alloca float, align 4
  %4 = alloca [40 x float], align 16
  %5 = alloca i32, align 4
  %6 = alloca i32, align 4
  %7 = alloca i32, align 4
  store i32 0, i32* %1, align 4
  store float 0.000000e+00, float* %3, align 4
  %8 = getelementptr inbounds [41 x i32], [41 x i32]* %2, i64 0, i64 0
  store i32 1, i32* %8, align 16
  %9 = getelementptr inbounds [41 x i32], [41 x i32]* %2, i64 0, i64 1
  store i32 2, i32* %9, align 4
  store i32 2, i32* %6, align 4
  br label %10

10:                                               ; preds = %28, %0
  %11 = load i32, i32* %6, align 4
  %12 = icmp slt i32 %11, 41
  br i1 %12, label %13, label %31

13:                                               ; preds = %10
  %14 = load i32, i32* %6, align 4
  %15 = sub nsw i32 %14, 1
  %16 = sext i32 %15 to i64
  %17 = getelementptr inbounds [41 x i32], [41 x i32]* %2, i64 0, i64 %16
  %18 = load i32, i32* %17, align 4
  %19 = load i32, i32* %6, align 4
  %20 = sub nsw i32 %19, 2
  %21 = sext i32 %20 to i64
  %22 = getelementptr inbounds [41 x i32], [41 x i32]* %2, i64 0, i64 %21
  %23 = load i32, i32* %22, align 4
  %24 = add nsw i32 %18, %23
  %25 = load i32, i32* %6, align 4
  %26 = sext i32 %25 to i64
  %27 = getelementptr inbounds [41 x i32], [41 x i32]* %2, i64 0, i64 %26
  store i32 %24, i32* %27, align 4
  br label %28

28:                                               ; preds = %13
  %29 = load i32, i32* %6, align 4
  %30 = add nsw i32 %29, 1
  store i32 %30, i32* %6, align 4
  br label %10

31:                                               ; preds = %10
  store i32 0, i32* %6, align 4
  br label %32

32:                                               ; preds = %57, %31
  %33 = load i32, i32* %6, align 4
  %34 = icmp slt i32 %33, 40
  br i1 %34, label %35, label %60

35:                                               ; preds = %32
  %36 = load i32, i32* %6, align 4
  %37 = add nsw i32 %36, 1
  %38 = sext i32 %37 to i64
  %39 = getelementptr inbounds [41 x i32], [41 x i32]* %2, i64 0, i64 %38
  %40 = load i32, i32* %39, align 4
  %41 = sitofp i32 %40 to float
  %42 = load i32, i32* %6, align 4
  %43 = sext i32 %42 to i64
  %44 = getelementptr inbounds [41 x i32], [41 x i32]* %2, i64 0, i64 %43
  %45 = load i32, i32* %44, align 4
  %46 = sitofp i32 %45 to float
  %47 = fdiv float %41, %46
  %48 = load i32, i32* %6, align 4
  %49 = sub nsw i32 %48, 1
  %50 = sext i32 %49 to i64
  %51 = getelementptr inbounds [40 x float], [40 x float]* %4, i64 0, i64 %50
  %52 = load float, float* %51, align 4
  %53 = fadd float %47, %52
  %54 = load i32, i32* %6, align 4
  %55 = sext i32 %54 to i64
  %56 = getelementptr inbounds [40 x float], [40 x float]* %4, i64 0, i64 %55
  store float %53, float* %56, align 4
  br label %57

57:                                               ; preds = %35
  %58 = load i32, i32* %6, align 4
  %59 = add nsw i32 %58, 1
  store i32 %59, i32* %6, align 4
  br label %32

60:                                               ; preds = %32
  %61 = call i32 (i8*, ...) @__isoc99_scanf(i8* getelementptr inbounds ([3 x i8], [3 x i8]* @.str, i64 0, i64 0), i32* %7)
  store i32 0, i32* %6, align 4
  br label %62

62:                                               ; preds = %75, %60
  %63 = load i32, i32* %6, align 4
  %64 = load i32, i32* %7, align 4
  %65 = icmp slt i32 %63, %64
  br i1 %65, label %66, label %78

66:                                               ; preds = %62
  %67 = call i32 (i8*, ...) @__isoc99_scanf(i8* getelementptr inbounds ([3 x i8], [3 x i8]* @.str, i64 0, i64 0), i32* %5)
  %68 = load i32, i32* %5, align 4
  %69 = sub nsw i32 %68, 1
  %70 = sext i32 %69 to i64
  %71 = getelementptr inbounds [40 x float], [40 x float]* %4, i64 0, i64 %70
  %72 = load float, float* %71, align 4
  %73 = fpext float %72 to double
  %74 = call i32 (i8*, ...) @printf(i8* getelementptr inbounds ([6 x i8], [6 x i8]* @.str.1, i64 0, i64 0), double %73)
  br label %75

75:                                               ; preds = %66
  %76 = load i32, i32* %6, align 4
  %77 = add nsw i32 %76, 1
  store i32 %77, i32* %6, align 4
  br label %62

78:                                               ; preds = %62
  ret i32 0
}

declare dso_local i32 @__isoc99_scanf(i8*, ...) #1

declare dso_local i32 @printf(i8*, ...) #1


!llvm.module.flags = !{!0}
!llvm.ident = !{!1}

!0 = !{i32 1, !"wchar_size", i32 4}
!1 = !{!"clang version 10.0.0-4ubuntu1 "}
